target datalayout = "e-m:e-p270:32:32-p271:32:32-p272:64:64-i64:64-i128:128-f80:128-n8:16:32:64-S128"
target triple = "x86_64-pc-linux-gnu"

%struct.ident_t = type { i32, i32, i32, i32, ptr }
%"class.ncnn::Dequantize" = type { %"class.ncnn::Layer", i32, i32, %"class.ncnn::Mat", %"class.ncnn::Mat" }
%"class.ncnn::Layer" = type { ptr, i8, i8, i8, i8, i8, i8, i8, i8, i8, i8, i8, i8, i8, i8, i8, i8, i8, i8, i8, i8, i32, ptr, i32, %"class.std::__cxx11::basic_string", %"class.std::__cxx11::basic_string", %"class.std::vector", %"class.std::vector", %"class.std::vector.3", %"class.std::vector.3" }
%"class.std::__cxx11::basic_string" = type { %"struct.std::__cxx11::basic_string<char>::_Alloc_hider", i64, %union.anon }
%"struct.std::__cxx11::basic_string<char>::_Alloc_hider" = type { ptr }
%union.anon = type { i64, [8 x i8] }
%"class.std::vector" = type { %"struct.std::_Vector_base" }
%"struct.std::_Vector_base" = type { %"struct.std::_Vector_base<int, std::allocator<int>>::_Vector_impl" }
%"struct.std::_Vector_base<int, std::allocator<int>>::_Vector_impl" = type { %"struct.std::_Vector_base<int, std::allocator<int>>::_Vector_impl_data" }
%"struct.std::_Vector_base<int, std::allocator<int>>::_Vector_impl_data" = type { ptr, ptr, ptr }
%"class.std::vector.3" = type { %"struct.std::_Vector_base.4" }
%"struct.std::_Vector_base.4" = type { %"struct.std::_Vector_base<ncnn::Mat, std::allocator<ncnn::Mat>>::_Vector_impl" }
%"struct.std::_Vector_base<ncnn::Mat, std::allocator<ncnn::Mat>>::_Vector_impl" = type { %"struct.std::_Vector_base<ncnn::Mat, std::allocator<ncnn::Mat>>::_Vector_impl_data" }
%"struct.std::_Vector_base<ncnn::Mat, std::allocator<ncnn::Mat>>::_Vector_impl_data" = type { ptr, ptr, ptr }
%"class.ncnn::Mat" = type { ptr, ptr, i64, i32, ptr, i32, i32, i32, i32, i32, i64 }

@1 = private unnamed_addr constant %struct.ident_t { i32 0, i32 514, i32 0, i32 22, ptr @0 }, align 8

; Function Attrs: noinline noreturn nounwind uwtable
define linkonce_odr hidden void @__clang_call_terminate(ptr noundef %0) #6 comdat {
  %2 = call ptr @__cxa_begin_catch(ptr %0) #10
  call void @_ZSt9terminatev() #13
  unreachable
}

; Function Attrs: mustprogress nounwind uwtable
define internal void @_ZN4ncnnL10dequantizeEPKiPfffi(ptr noundef %0, ptr noundef %1, float noundef nofpclass(nan inf) %2, float noundef nofpclass(nan inf) %3, i32 noundef %4) #8 {
  %6 = alloca ptr, align 8
  %7 = alloca ptr, align 8
  %8 = alloca float, align 4
  %9 = alloca float, align 4
  %10 = alloca i32, align 4
  %11 = alloca i32, align 4
  store ptr %0, ptr %6, align 8, !tbaa !47
  store ptr %1, ptr %7, align 8, !tbaa !48
  store float %2, ptr %8, align 4, !tbaa !50
  store float %3, ptr %9, align 4, !tbaa !50
  store i32 %4, ptr %10, align 4, !tbaa !41
  call void @llvm.lifetime.start.p0(i64 4, ptr %11) #10
  store i32 0, ptr %11, align 4, !tbaa !41
  br label %12

12:                                               ; preds = %30, %5
  %13 = load i32, ptr %11, align 4, !tbaa !41
  %14 = load i32, ptr %10, align 4, !tbaa !41
  %15 = icmp slt i32 %13, %14
  br i1 %15, label %17, label %16

16:                                               ; preds = %12
  call void @llvm.lifetime.end.p0(i64 4, ptr %11) #10
  br label %33

17:                                               ; preds = %12
  %18 = load ptr, ptr %6, align 8, !tbaa !47
  %19 = load i32, ptr %18, align 4, !tbaa !41
  %20 = sitofp i32 %19 to float
  %21 = load float, ptr %8, align 4, !tbaa !50
  %22 = fmul fast float %20, %21
  %23 = load float, ptr %9, align 4, !tbaa !50
  %24 = fadd fast float %22, %23
  %25 = load ptr, ptr %7, align 8, !tbaa !48
  store float %24, ptr %25, align 4, !tbaa !50
  %26 = load ptr, ptr %6, align 8, !tbaa !47
  %27 = getelementptr inbounds nuw i32, ptr %26, i32 1
  store ptr %27, ptr %6, align 8, !tbaa !47
  %28 = load ptr, ptr %7, align 8, !tbaa !48
  %29 = getelementptr inbounds nuw float, ptr %28, i32 1
  store ptr %29, ptr %7, align 8, !tbaa !48
  br label %30

30:                                               ; preds = %17
  %31 = load i32, ptr %11, align 4, !tbaa !41
  %32 = add nsw i32 %31, 1
  store i32 %32, ptr %11, align 4, !tbaa !41
  br label %12, !llvm.loop !64

33:                                               ; preds = %16
  ret void
}

; Function Attrs: alwaysinline mustprogress nounwind uwtable
define linkonce_odr hidden noundef nonnull align 4 dereferenceable(4) ptr @_ZNK4ncnn3MatixEm(ptr noundef nonnull align 8 dereferenceable(72) %0, i64 noundef %1) #3 comdat align 2 {
  %3 = alloca ptr, align 8
  %4 = alloca i64, align 8
  store ptr %0, ptr %3, align 8, !tbaa !37
  store i64 %1, ptr %4, align 8, !tbaa !63
  %5 = load ptr, ptr %3, align 8
  %6 = getelementptr inbounds nuw %"class.ncnn::Mat", ptr %5, i32 0, i32 0
  %7 = load ptr, ptr %6, align 8, !tbaa !55
  %8 = load i64, ptr %4, align 8, !tbaa !63
  %9 = getelementptr inbounds nuw float, ptr %7, i64 %8
  ret ptr %9
}

; Function Attrs: alwaysinline mustprogress nounwind uwtable
define linkonce_odr hidden noundef ptr @_ZN4ncnn3Mat3rowEi(ptr noundef nonnull align 8 dereferenceable(72) %0, i32 noundef %1) #3 comdat align 2 {
  %3 = alloca ptr, align 8
  %4 = alloca i32, align 4
  store ptr %0, ptr %3, align 8, !tbaa !37
  store i32 %1, ptr %4, align 4, !tbaa !41
  %5 = load ptr, ptr %3, align 8
  %6 = getelementptr inbounds nuw %"class.ncnn::Mat", ptr %5, i32 0, i32 0
  %7 = load ptr, ptr %6, align 8, !tbaa !55
  %8 = getelementptr inbounds nuw %"class.ncnn::Mat", ptr %5, i32 0, i32 6
  %9 = load i32, ptr %8, align 4, !tbaa !42
  %10 = sext i32 %9 to i64
  %11 = load i32, ptr %4, align 4, !tbaa !41
  %12 = sext i32 %11 to i64
  %13 = mul i64 %10, %12
  %14 = getelementptr inbounds nuw %"class.ncnn::Mat", ptr %5, i32 0, i32 2
  %15 = load i64, ptr %14, align 8, !tbaa !57
  %16 = mul i64 %13, %15
  %17 = getelementptr inbounds nuw i8, ptr %7, i64 %16
  ret ptr %17
}

; Function Attrs: alwaysinline mustprogress nounwind uwtable
define linkonce_odr hidden noundef ptr @_ZNK4ncnn3Mat3rowIKiEEPKT_i(ptr noundef nonnull align 8 dereferenceable(72) %0, i32 noundef %1) #3 comdat align 2 {
  %3 = alloca ptr, align 8
  %4 = alloca i32, align 4
  store ptr %0, ptr %3, align 8, !tbaa !37
  store i32 %1, ptr %4, align 4, !tbaa !41
  %5 = load ptr, ptr %3, align 8
  %6 = getelementptr inbounds nuw %"class.ncnn::Mat", ptr %5, i32 0, i32 0
  %7 = load ptr, ptr %6, align 8, !tbaa !55
  %8 = getelementptr inbounds nuw %"class.ncnn::Mat", ptr %5, i32 0, i32 6
  %9 = load i32, ptr %8, align 4, !tbaa !42
  %10 = sext i32 %9 to i64
  %11 = load i32, ptr %4, align 4, !tbaa !41
  %12 = sext i32 %11 to i64
  %13 = mul i64 %10, %12
  %14 = getelementptr inbounds nuw %"class.ncnn::Mat", ptr %5, i32 0, i32 2
  %15 = load i64, ptr %14, align 8, !tbaa !57
  %16 = mul i64 %13, %15
  %17 = getelementptr inbounds nuw i8, ptr %7, i64 %16
  ret ptr %17
}

; Function Attrs: alwaysinline norecurse nounwind uwtable
define internal void @_ZNK4ncnn10Dequantize7forwardERKNS_3MatERS1_RKNS_6OptionE.omp_outlined(ptr noalias noundef %0, ptr noalias noundef %1, ptr noundef nonnull align 4 dereferenceable(4) %2, ptr noundef nonnull align 8 dereferenceable(72) %3, ptr noundef nonnull align 8 dereferenceable(72) %4, ptr noundef %5, ptr noundef nonnull align 4 dereferenceable(4) %6) #9 personality ptr @__gxx_personality_v0 {
  %8 = alloca ptr, align 8
  %9 = alloca ptr, align 8
  %10 = alloca ptr, align 8
  %11 = alloca ptr, align 8
  %12 = alloca ptr, align 8
  %13 = alloca ptr, align 8
  %14 = alloca ptr, align 8
  %15 = alloca ptr, align 8
  %16 = alloca ptr, align 8
  %17 = alloca i32, align 4
  %18 = alloca i32, align 4
  %19 = alloca i32, align 4
  %20 = alloca i32, align 4
  %21 = alloca i32, align 4
  %22 = alloca i32, align 4
  %23 = alloca i32, align 4
  %24 = alloca i32, align 4
  %25 = alloca i32, align 4
  %26 = alloca ptr, align 8
  %27 = alloca ptr, align 8
  %28 = alloca float, align 4
  %29 = alloca float, align 4
  store ptr %0, ptr %8, align 8, !tbaa !47
  store ptr %1, ptr %9, align 8, !tbaa !47
  store ptr %2, ptr %10, align 8, !tbaa !47
  store ptr %3, ptr %11, align 8, !tbaa !37
  store ptr %4, ptr %12, align 8, !tbaa !37
  store ptr %5, ptr %13, align 8, !tbaa !4
  store ptr %6, ptr %14, align 8, !tbaa !47
  %30 = load ptr, ptr %10, align 8, !tbaa !47
  %31 = load ptr, ptr %11, align 8, !tbaa !37
  %32 = load ptr, ptr %12, align 8, !tbaa !37
  %33 = load ptr, ptr %13, align 8, !tbaa !4
  %34 = load ptr, ptr %14, align 8, !tbaa !47
  store ptr %31, ptr %15, align 8
  store ptr %32, ptr %16, align 8
  call void @llvm.lifetime.start.p0(i64 4, ptr %17) #10
  call void @llvm.lifetime.start.p0(i64 4, ptr %18) #10
  %35 = load i32, ptr %30, align 4, !tbaa !41
  store i32 %35, ptr %18, align 4, !tbaa !41
  call void @llvm.lifetime.start.p0(i64 4, ptr %19) #10
  %36 = load i32, ptr %18, align 4, !tbaa !41
  %37 = sub nsw i32 %36, 0
  %38 = sdiv i32 %37, 1
  %39 = sub nsw i32 %38, 1
  store i32 %39, ptr %19, align 4, !tbaa !41
  call void @llvm.lifetime.start.p0(i64 4, ptr %20) #10
  store i32 0, ptr %20, align 4, !tbaa !41
  call void @llvm.lifetime.end.p0(i64 4, ptr %20) #10
  %40 = load i32, ptr %18, align 4, !tbaa !41
  %41 = icmp slt i32 0, %40
  br i1 %41, label %42, label %128

42:                                               ; preds = %7
  call void @llvm.lifetime.start.p0(i64 4, ptr %21) #10
  store i32 0, ptr %21, align 4, !tbaa !41
  call void @llvm.lifetime.start.p0(i64 4, ptr %22) #10
  %43 = load i32, ptr %19, align 4, !tbaa !41
  store i32 %43, ptr %22, align 4, !tbaa !41
  call void @llvm.lifetime.start.p0(i64 4, ptr %23) #10
  store i32 1, ptr %23, align 4, !tbaa !41
  call void @llvm.lifetime.start.p0(i64 4, ptr %24) #10
  store i32 0, ptr %24, align 4, !tbaa !41
  call void @llvm.lifetime.start.p0(i64 4, ptr %25) #10
  %44 = load ptr, ptr %8, align 8
  %45 = load i32, ptr %44, align 4, !tbaa !41
  call void @__kmpc_for_static_init_4(ptr @1, i32 %45, i32 34, ptr %24, ptr %21, ptr %22, ptr %23, i32 1, i32 1)
  %46 = load i32, ptr %22, align 4, !tbaa !41
  %47 = load i32, ptr %19, align 4, !tbaa !41
  %48 = icmp sgt i32 %46, %47
  br i1 %48, label %49, label %51

49:                                               ; preds = %42
  %50 = load i32, ptr %19, align 4, !tbaa !41
  br label %53

51:                                               ; preds = %42
  %52 = load i32, ptr %22, align 4, !tbaa !41
  br label %53

53:                                               ; preds = %51, %49
  %54 = phi i32 [ %50, %49 ], [ %52, %51 ]
  store i32 %54, ptr %22, align 4, !tbaa !41
  %55 = load i32, ptr %21, align 4, !tbaa !41
  store i32 %55, ptr %17, align 4, !tbaa !41
  br label %56

56:                                               ; preds = %121, %53
  %57 = load i32, ptr %17, align 4, !tbaa !41
  %58 = load i32, ptr %22, align 4, !tbaa !41
  %59 = icmp sle i32 %57, %58
  br i1 %59, label %61, label %60

60:                                               ; preds = %56
  br label %124

61:                                               ; preds = %56
  %62 = load i32, ptr %17, align 4, !tbaa !41
  %63 = mul nsw i32 %62, 1
  %64 = add nsw i32 0, %63
  store i32 %64, ptr %25, align 4, !tbaa !41
  call void @llvm.lifetime.start.p0(i64 8, ptr %26) #10
  %65 = load ptr, ptr %15, align 8, !tbaa !37
  %66 = load i32, ptr %25, align 4, !tbaa !41
  %67 = invoke noundef ptr @_ZNK4ncnn3Mat3rowIKiEEPKT_i(ptr noundef nonnull align 8 dereferenceable(72) %65, i32 noundef %66)
          to label %68 unwind label %129

68:                                               ; preds = %61
  store ptr %67, ptr %26, align 8, !tbaa !47
  call void @llvm.lifetime.start.p0(i64 8, ptr %27) #10
  %69 = load ptr, ptr %16, align 8, !tbaa !37
  %70 = load i32, ptr %25, align 4, !tbaa !41
  %71 = invoke noundef ptr @_ZN4ncnn3Mat3rowEi(ptr noundef nonnull align 8 dereferenceable(72) %69, i32 noundef %70)
          to label %72 unwind label %129

72:                                               ; preds = %68
  store ptr %71, ptr %27, align 8, !tbaa !48
  call void @llvm.lifetime.start.p0(i64 4, ptr %28) #10
  %73 = getelementptr inbounds nuw %"class.ncnn::Dequantize", ptr %33, i32 0, i32 1
  %74 = load i32, ptr %73, align 8, !tbaa !13
  %75 = icmp eq i32 %74, 1
  br i1 %75, label %76, label %81

76:                                               ; preds = %72
  %77 = getelementptr inbounds nuw %"class.ncnn::Dequantize", ptr %33, i32 0, i32 3
  %78 = invoke noundef nonnull align 4 dereferenceable(4) ptr @_ZNK4ncnn3MatixEm(ptr noundef nonnull align 8 dereferenceable(72) %77, i64 noundef 0)
          to label %79 unwind label %129

79:                                               ; preds = %76
  %80 = load float, ptr %78, align 4, !tbaa !50
  br label %88

81:                                               ; preds = %72
  %82 = getelementptr inbounds nuw %"class.ncnn::Dequantize", ptr %33, i32 0, i32 3
  %83 = load i32, ptr %25, align 4, !tbaa !41
  %84 = sext i32 %83 to i64
  %85 = invoke noundef nonnull align 4 dereferenceable(4) ptr @_ZNK4ncnn3MatixEm(ptr noundef nonnull align 8 dereferenceable(72) %82, i64 noundef %84)
          to label %86 unwind label %129

86:                                               ; preds = %81
  %87 = load float, ptr %85, align 4, !tbaa !50
  br label %88

88:                                               ; preds = %86, %79
  %89 = phi fast float [ %80, %79 ], [ %87, %86 ]
  store float %89, ptr %28, align 4, !tbaa !50
  call void @llvm.lifetime.start.p0(i64 4, ptr %29) #10
  %90 = getelementptr inbounds nuw %"class.ncnn::Dequantize", ptr %33, i32 0, i32 2
  %91 = load i32, ptr %90, align 4, !tbaa !34
  %92 = icmp eq i32 %91, 0
  br i1 %92, label %93, label %94

93:                                               ; preds = %88
  br label %112

94:                                               ; preds = %88
  %95 = getelementptr inbounds nuw %"class.ncnn::Dequantize", ptr %33, i32 0, i32 2
  %96 = load i32, ptr %95, align 4, !tbaa !34
  %97 = icmp eq i32 %96, 1
  br i1 %97, label %98, label %103

98:                                               ; preds = %94
  %99 = getelementptr inbounds nuw %"class.ncnn::Dequantize", ptr %33, i32 0, i32 4
  %100 = invoke noundef nonnull align 4 dereferenceable(4) ptr @_ZNK4ncnn3MatixEm(ptr noundef nonnull align 8 dereferenceable(72) %99, i64 noundef 0)
          to label %101 unwind label %129

101:                                              ; preds = %98
  %102 = load float, ptr %100, align 4, !tbaa !50
  br label %110

103:                                              ; preds = %94
  %104 = getelementptr inbounds nuw %"class.ncnn::Dequantize", ptr %33, i32 0, i32 4
  %105 = load i32, ptr %25, align 4, !tbaa !41
  %106 = sext i32 %105 to i64
  %107 = invoke noundef nonnull align 4 dereferenceable(4) ptr @_ZNK4ncnn3MatixEm(ptr noundef nonnull align 8 dereferenceable(72) %104, i64 noundef %106)
          to label %108 unwind label %129

108:                                              ; preds = %103
  %109 = load float, ptr %107, align 4, !tbaa !50
  br label %110

110:                                              ; preds = %108, %101
  %111 = phi fast float [ %102, %101 ], [ %109, %108 ]
  br label %112

112:                                              ; preds = %110, %93
  %113 = phi fast float [ 0.000000e+00, %93 ], [ %111, %110 ]
  store float %113, ptr %29, align 4, !tbaa !50
  %114 = load ptr, ptr %26, align 8, !tbaa !47
  %115 = load ptr, ptr %27, align 8, !tbaa !48
  %116 = load float, ptr %28, align 4, !tbaa !50
  %117 = load float, ptr %29, align 4, !tbaa !50
  %118 = load i32, ptr %34, align 4, !tbaa !41
  invoke void @_ZN4ncnnL10dequantizeEPKiPfffi(ptr noundef %114, ptr noundef %115, float noundef nofpclass(nan inf) %116, float noundef nofpclass(nan inf) %117, i32 noundef %118)
          to label %119 unwind label %129

119:                                              ; preds = %112
  call void @llvm.lifetime.end.p0(i64 4, ptr %29) #10
  call void @llvm.lifetime.end.p0(i64 4, ptr %28) #10
  call void @llvm.lifetime.end.p0(i64 8, ptr %27) #10
  call void @llvm.lifetime.end.p0(i64 8, ptr %26) #10
  br label %120

120:                                              ; preds = %119
  br label %121

121:                                              ; preds = %120
  %122 = load i32, ptr %17, align 4, !tbaa !41
  %123 = add nsw i32 %122, 1
  store i32 %123, ptr %17, align 4, !tbaa !41
  br label %56

124:                                              ; preds = %60
  br label %125

125:                                              ; preds = %124
  %126 = load ptr, ptr %8, align 8
  %127 = load i32, ptr %126, align 4, !tbaa !41
  call void @__kmpc_for_static_fini(ptr @1, i32 %127)
  call void @llvm.lifetime.end.p0(i64 4, ptr %25) #10
  call void @llvm.lifetime.end.p0(i64 4, ptr %24) #10
  call void @llvm.lifetime.end.p0(i64 4, ptr %23) #10
  call void @llvm.lifetime.end.p0(i64 4, ptr %22) #10
  call void @llvm.lifetime.end.p0(i64 4, ptr %21) #10
  br label %128

128:                                              ; preds = %125, %7
  call void @llvm.lifetime.end.p0(i64 4, ptr %19) #10
  call void @llvm.lifetime.end.p0(i64 4, ptr %18) #10
  call void @llvm.lifetime.end.p0(i64 4, ptr %17) #10
  ret void

129:                                              ; preds = %112, %103, %98, %81, %76, %68, %61
  %130 = landingpad { ptr, i32 }
          catch ptr null
  %131 = extractvalue { ptr, i32 } %130, 0
  call void @__clang_call_terminate(ptr %131) #13
  unreachable
}