; Function Attrs: alwaysinline norecurse nounwind uwtable
define internal void @_ZNK4ncnn10Dequantize7forwardERKNS_3MatERS1_RKNS_6OptionE.omp_outlined(ptr noalias noundef readonly captures(none) %0, ptr noalias readnone captures(none) %1, ptr noundef nonnull readonly align 4 captures(none) dereferenceable(4) %2, ptr noundef nonnull readonly align 8 captures(none) dereferenceable(72) %3, ptr noundef nonnull readonly align 8 captures(none) dereferenceable(72) %4, ptr noundef readonly captures(none) %5, ptr noundef nonnull readonly align 4 captures(none) dereferenceable(4) %6) #8 personality ptr @__gxx_personality_v0 {
  %8 = alloca i32, align 4
  %9 = alloca i32, align 4
  %10 = alloca i32, align 4
  %11 = alloca i32, align 4
  %12 = load i32, ptr %2, align 4, !tbaa !42
  %13 = icmp sgt i32 %12, 0
  br i1 %13, label %14, label %62

14:                                               ; preds = %7
  %15 = add nsw i32 %12, -1
  call void @llvm.lifetime.start.p0(i64 4, ptr nonnull %8) #9
  store i32 0, ptr %8, align 4, !tbaa !42
  call void @llvm.lifetime.start.p0(i64 4, ptr nonnull %9) #9
  store i32 %15, ptr %9, align 4, !tbaa !42
  call void @llvm.lifetime.start.p0(i64 4, ptr nonnull %10) #9
  store i32 1, ptr %10, align 4, !tbaa !42
  call void @llvm.lifetime.start.p0(i64 4, ptr nonnull %11) #9
  store i32 0, ptr %11, align 4, !tbaa !42
  %16 = load i32, ptr %0, align 4, !tbaa !42
  call void @__kmpc_for_static_init_4(ptr nonnull @1, i32 %16, i32 34, ptr nonnull %11, ptr nonnull %8, ptr nonnull %9, ptr nonnull %10, i32 1, i32 1)
  %17 = load i32, ptr %9, align 4, !tbaa !42
  %18 = call i32 @llvm.smin.i32(i32 %17, i32 %15)
  store i32 %18, ptr %9, align 4, !tbaa !42
  %19 = load i32, ptr %8, align 4, !tbaa !42
  %.not25 = icmp sgt i32 %19, %18
  br i1 %.not25, label %._crit_edge, label %.lr.ph

.lr.ph:                                           ; preds = %14
  %20 = load ptr, ptr %3, align 8, !tbaa !16
  %21 = getelementptr inbounds nuw i8, ptr %3, i64 44
  %22 = load i32, ptr %21, align 4, !tbaa !38
  %23 = sext i32 %22 to i64
  %24 = getelementptr inbounds nuw i8, ptr %3, i64 16
  %25 = load i64, ptr %24, align 8, !tbaa !35
  %factor.op.mul = mul i64 %25, %23
  %26 = load ptr, ptr %4, align 8, !tbaa !16
  %27 = getelementptr inbounds nuw i8, ptr %4, i64 44
  %28 = load i32, ptr %27, align 4, !tbaa !38
  %29 = sext i32 %28 to i64
  %30 = getelementptr inbounds nuw i8, ptr %4, i64 16
  %31 = load i64, ptr %30, align 8, !tbaa !35
  %factor.op.mul27 = mul i64 %31, %29
  %32 = getelementptr inbounds nuw i8, ptr %5, i64 208
  %33 = load i32, ptr %32, align 8, !tbaa !18
  %34 = icmp eq i32 %33, 1
  %35 = getelementptr inbounds nuw i8, ptr %5, i64 216
  %36 = getelementptr inbounds nuw i8, ptr %5, i64 212
  %37 = load i32, ptr %36, align 4, !tbaa !34
  %38 = getelementptr inbounds nuw i8, ptr %5, i64 288
  %39 = load i32, ptr %6, align 4, !tbaa !42
  %40 = icmp sgt i32 %39, 0
  br i1 %40, label %.lr.ph.split.us.preheader, label %._crit_edge

.lr.ph.split.us.preheader:                        ; preds = %.lr.ph
  %41 = sext i32 %19 to i64
  %42 = add nsw i32 %18, 1
  %43 = load ptr, ptr %35, align 8, !tbaa !16
  br label %.lr.ph.split.us

.lr.ph.split.us:                                  ; preds = %.lr.ph.split.us.preheader, %_ZN4ncnnL10dequantizeEPKiPfffi.exit.loopexit.us
  %indvars.iv = phi i64 [ %41, %.lr.ph.split.us.preheader ], [ %indvars.iv.next, %_ZN4ncnnL10dequantizeEPKiPfffi.exit.loopexit.us ]
  %.reass.us = mul i64 %factor.op.mul, %indvars.iv
  %44 = getelementptr inbounds nuw i8, ptr %20, i64 %.reass.us
  %.reass28.us = mul i64 %factor.op.mul27, %indvars.iv
  %45 = getelementptr inbounds nuw i8, ptr %26, i64 %.reass28.us
  %.in.us.idx = select i1 %34, i64 0, i64 %indvars.iv
  %.in.us = getelementptr inbounds nuw float, ptr %43, i64 %.in.us.idx
  %46 = load float, ptr %.in.us, align 4, !tbaa !45
  switch i32 %37, label %50 [
    i32 0, label %.lr.ph.i.preheader.us
    i32 1, label %47
  ]

47:                                               ; preds = %.lr.ph.split.us
  %48 = load ptr, ptr %38, align 8, !tbaa !16
  %49 = load float, ptr %48, align 4, !tbaa !45
  br label %.lr.ph.i.preheader.us

50:                                               ; preds = %.lr.ph.split.us
  %51 = load ptr, ptr %38, align 8, !tbaa !16
  %52 = getelementptr inbounds nuw float, ptr %51, i64 %indvars.iv
  %53 = load float, ptr %52, align 4, !tbaa !45
  br label %.lr.ph.i.preheader.us

.lr.ph.i.preheader.us:                            ; preds = %50, %47, %.lr.ph.split.us
  %54 = phi fast float [ 0.000000e+00, %.lr.ph.split.us ], [ %49, %47 ], [ %53, %50 ]
  br label %.lr.ph.i.us

.lr.ph.i.us:                                      ; preds = %.lr.ph.i.preheader.us, %.lr.ph.i.us
  %.012.i.us = phi i32 [ %61, %.lr.ph.i.us ], [ 0, %.lr.ph.i.preheader.us ]
  %.0811.i.us = phi ptr [ %59, %.lr.ph.i.us ], [ %44, %.lr.ph.i.preheader.us ]
  %.0910.i.us = phi ptr [ %60, %.lr.ph.i.us ], [ %45, %.lr.ph.i.preheader.us ]
  %55 = load i32, ptr %.0811.i.us, align 4, !tbaa !42
  %56 = sitofp i32 %55 to float
  %57 = fmul fast float %46, %56
  %58 = fadd fast float %57, %54
  store float %58, ptr %.0910.i.us, align 4, !tbaa !45
  %59 = getelementptr inbounds nuw i8, ptr %.0811.i.us, i64 4
  %60 = getelementptr inbounds nuw i8, ptr %.0910.i.us, i64 4
  %61 = add nuw nsw i32 %.012.i.us, 1
  %exitcond.not.i.us = icmp eq i32 %61, %39
  br i1 %exitcond.not.i.us, label %_ZN4ncnnL10dequantizeEPKiPfffi.exit.loopexit.us, label %.lr.ph.i.us, !llvm.loop !47

_ZN4ncnnL10dequantizeEPKiPfffi.exit.loopexit.us:  ; preds = %.lr.ph.i.us
  %indvars.iv.next = add nsw i64 %indvars.iv, 1
  %lftr.wideiv = trunc i64 %indvars.iv.next to i32
  %exitcond.not = icmp eq i32 %42, %lftr.wideiv
  br i1 %exitcond.not, label %._crit_edge, label %.lr.ph.split.us

._crit_edge:                                      ; preds = %_ZN4ncnnL10dequantizeEPKiPfffi.exit.loopexit.us, %.lr.ph, %14
  call void @__kmpc_for_static_fini(ptr nonnull @1, i32 %16)
  call void @llvm.lifetime.end.p0(i64 4, ptr nonnull %11) #9
  call void @llvm.lifetime.end.p0(i64 4, ptr nonnull %10) #9
  call void @llvm.lifetime.end.p0(i64 4, ptr nonnull %9) #9
  call void @llvm.lifetime.end.p0(i64 4, ptr nonnull %8) #9
  br label %62

62:                                               ; preds = %._crit_edge, %7
  ret void
}